ARM GAS  /var/folders/r0/ydptfcq11zg26w5yg1gx1gdc0000gn/T//ccXIJJG4.s 			page 1


   1              		.cpu cortex-m4
   2              		.arch armv7e-m
   3              		.fpu fpv4-sp-d16
   4              		.eabi_attribute 27, 1
   5              		.eabi_attribute 28, 1
   6              		.eabi_attribute 20, 1
   7              		.eabi_attribute 21, 1
   8              		.eabi_attribute 23, 3
   9              		.eabi_attribute 24, 1
  10              		.eabi_attribute 25, 1
  11              		.eabi_attribute 26, 1
  12              		.eabi_attribute 30, 1
  13              		.eabi_attribute 34, 1
  14              		.eabi_attribute 18, 4
  15              		.file	"app_freertos.c"
  16              		.text
  17              	.Ltext0:
  18              		.cfi_sections	.debug_frame
  19              		.section	.rodata.StartDefaultTask.str1.4,"aMS",%progbits,1
  20              		.align	2
  21              	.LC0:
  22 0000 53746172 		.ascii	"Starting Program!\000"
  22      74696E67 
  22      2050726F 
  22      6772616D 
  22      2100
  23              		.section	.text.StartDefaultTask,"ax",%progbits
  24              		.align	1
  25              		.global	StartDefaultTask
  26              		.syntax unified
  27              		.thumb
  28              		.thumb_func
  30              	StartDefaultTask:
  31              	.LVL0:
  32              	.LFB1110:
  33              		.file 1 "Core/Src/app_freertos.c"
   1:Core/Src/app_freertos.c **** /* USER CODE BEGIN Header */
   2:Core/Src/app_freertos.c **** /**
   3:Core/Src/app_freertos.c ****   ******************************************************************************
   4:Core/Src/app_freertos.c ****   * File Name          : app_freertos.c
   5:Core/Src/app_freertos.c ****   * Description        : Code for freertos applications
   6:Core/Src/app_freertos.c ****   ******************************************************************************
   7:Core/Src/app_freertos.c ****   * @attention
   8:Core/Src/app_freertos.c ****   *
   9:Core/Src/app_freertos.c ****   * Copyright (c) 2022 STMicroelectronics.
  10:Core/Src/app_freertos.c ****   * All rights reserved.
  11:Core/Src/app_freertos.c ****   *
  12:Core/Src/app_freertos.c ****   * This software is licensed under terms that can be found in the LICENSE file
  13:Core/Src/app_freertos.c ****   * in the root directory of this software component.
  14:Core/Src/app_freertos.c ****   * If no LICENSE file comes with this software, it is provided AS-IS.
  15:Core/Src/app_freertos.c ****   *
  16:Core/Src/app_freertos.c ****   ******************************************************************************
  17:Core/Src/app_freertos.c ****   */
  18:Core/Src/app_freertos.c **** /* USER CODE END Header */
  19:Core/Src/app_freertos.c **** 
  20:Core/Src/app_freertos.c **** /* Includes ------------------------------------------------------------------*/
  21:Core/Src/app_freertos.c **** #include "FreeRTOS.h"
ARM GAS  /var/folders/r0/ydptfcq11zg26w5yg1gx1gdc0000gn/T//ccXIJJG4.s 			page 2


  22:Core/Src/app_freertos.c **** #include "task.h"
  23:Core/Src/app_freertos.c **** #include "main.h"
  24:Core/Src/app_freertos.c **** #include "cmsis_os.h"
  25:Core/Src/app_freertos.c **** 
  26:Core/Src/app_freertos.c **** /* Private includes ----------------------------------------------------------*/
  27:Core/Src/app_freertos.c **** /* USER CODE BEGIN Includes */
  28:Core/Src/app_freertos.c **** #include "lcd16x2.h"
  29:Core/Src/app_freertos.c **** #include "tim.h"
  30:Core/Src/app_freertos.c **** #include "adc.h"
  31:Core/Src/app_freertos.c **** #include "DHT.h"
  32:Core/Src/app_freertos.c **** #include "DC_MOTOR.h"
  33:Core/Src/app_freertos.c **** #define DC_MOTOR1 0
  34:Core/Src/app_freertos.c **** /* USER CODE END Includes */
  35:Core/Src/app_freertos.c **** 
  36:Core/Src/app_freertos.c **** /* Private typedef -----------------------------------------------------------*/
  37:Core/Src/app_freertos.c **** /* USER CODE BEGIN PTD */
  38:Core/Src/app_freertos.c **** 
  39:Core/Src/app_freertos.c **** /* USER CODE END PTD */
  40:Core/Src/app_freertos.c **** 
  41:Core/Src/app_freertos.c **** /* Private define ------------------------------------------------------------*/
  42:Core/Src/app_freertos.c **** /* USER CODE BEGIN PD */
  43:Core/Src/app_freertos.c **** 
  44:Core/Src/app_freertos.c **** /* USER CODE END PD */
  45:Core/Src/app_freertos.c **** 
  46:Core/Src/app_freertos.c **** /* Private macro -------------------------------------------------------------*/
  47:Core/Src/app_freertos.c **** /* USER CODE BEGIN PM */
  48:Core/Src/app_freertos.c **** 
  49:Core/Src/app_freertos.c **** /* USER CODE END PM */
  50:Core/Src/app_freertos.c **** 
  51:Core/Src/app_freertos.c **** /* Private variables ---------------------------------------------------------*/
  52:Core/Src/app_freertos.c **** /* USER CODE BEGIN Variables */
  53:Core/Src/app_freertos.c **** 
  54:Core/Src/app_freertos.c **** /* USER CODE END Variables */
  55:Core/Src/app_freertos.c **** /* Definitions for defaultTask */
  56:Core/Src/app_freertos.c **** osThreadId_t defaultTaskHandle;
  57:Core/Src/app_freertos.c **** const osThreadAttr_t defaultTask_attributes = {
  58:Core/Src/app_freertos.c ****   .name = "defaultTask",
  59:Core/Src/app_freertos.c ****   .priority = (osPriority_t) osPriorityNormal,
  60:Core/Src/app_freertos.c ****   .stack_size = 128 * 4
  61:Core/Src/app_freertos.c **** };
  62:Core/Src/app_freertos.c **** /* Definitions for tempCheck */
  63:Core/Src/app_freertos.c **** osTimerId_t tempCheckHandle;
  64:Core/Src/app_freertos.c **** const osTimerAttr_t tempCheck_attributes = {
  65:Core/Src/app_freertos.c ****   .name = "tempCheck"
  66:Core/Src/app_freertos.c **** };
  67:Core/Src/app_freertos.c **** /* Definitions for checkADC */
  68:Core/Src/app_freertos.c **** osTimerId_t checkADCHandle;
  69:Core/Src/app_freertos.c **** const osTimerAttr_t checkADC_attributes = {
  70:Core/Src/app_freertos.c ****   .name = "checkADC"
  71:Core/Src/app_freertos.c **** };
  72:Core/Src/app_freertos.c **** 
  73:Core/Src/app_freertos.c **** /* Private function prototypes -----------------------------------------------*/
  74:Core/Src/app_freertos.c **** /* USER CODE BEGIN FunctionPrototypes */
  75:Core/Src/app_freertos.c **** 
  76:Core/Src/app_freertos.c **** void Display_Temp(float Temp, float Rh){
  77:Core/Src/app_freertos.c ****   lcd16x2_clear();
  78:Core/Src/app_freertos.c ****   lcd16x2_1stLine();
ARM GAS  /var/folders/r0/ydptfcq11zg26w5yg1gx1gdc0000gn/T//ccXIJJG4.s 			page 3


  79:Core/Src/app_freertos.c ****   lcd16x2_printf("Temp: %dC RH: %d", (int)Temp, (int)Rh);
  80:Core/Src/app_freertos.c **** }
  81:Core/Src/app_freertos.c **** 
  82:Core/Src/app_freertos.c **** DHT_DataTypedef DHT11_Data;
  83:Core/Src/app_freertos.c **** float Temperature = 0;
  84:Core/Src/app_freertos.c **** float Humidity = 0;
  85:Core/Src/app_freertos.c **** 
  86:Core/Src/app_freertos.c **** /* USER CODE END FunctionPrototypes */
  87:Core/Src/app_freertos.c **** 
  88:Core/Src/app_freertos.c **** void StartDefaultTask(void *argument);
  89:Core/Src/app_freertos.c **** void tempCheckCallBack(void *argument);
  90:Core/Src/app_freertos.c **** void checkADCCallBack(void *argument);
  91:Core/Src/app_freertos.c **** 
  92:Core/Src/app_freertos.c **** void MX_FREERTOS_Init(void); /* (MISRA C 2004 rule 8.1) */
  93:Core/Src/app_freertos.c **** 
  94:Core/Src/app_freertos.c **** /**
  95:Core/Src/app_freertos.c ****   * @brief  FreeRTOS initialization
  96:Core/Src/app_freertos.c ****   * @param  None
  97:Core/Src/app_freertos.c ****   * @retval None
  98:Core/Src/app_freertos.c ****   */
  99:Core/Src/app_freertos.c **** void MX_FREERTOS_Init(void) {
 100:Core/Src/app_freertos.c ****   /* USER CODE BEGIN Init */
 101:Core/Src/app_freertos.c **** 
 102:Core/Src/app_freertos.c ****   /* USER CODE END Init */
 103:Core/Src/app_freertos.c **** 
 104:Core/Src/app_freertos.c ****   /* USER CODE BEGIN RTOS_MUTEX */
 105:Core/Src/app_freertos.c ****   /* add mutexes, ... */
 106:Core/Src/app_freertos.c ****   /* USER CODE END RTOS_MUTEX */
 107:Core/Src/app_freertos.c **** 
 108:Core/Src/app_freertos.c ****   /* USER CODE BEGIN RTOS_SEMAPHORES */
 109:Core/Src/app_freertos.c ****   /* add semaphores, ... */
 110:Core/Src/app_freertos.c ****   /* USER CODE END RTOS_SEMAPHORES */
 111:Core/Src/app_freertos.c **** 
 112:Core/Src/app_freertos.c ****   /* Create the timer(s) */
 113:Core/Src/app_freertos.c ****   /* creation of tempCheck */
 114:Core/Src/app_freertos.c ****   tempCheckHandle = osTimerNew(tempCheckCallBack, osTimerPeriodic, NULL, &tempCheck_attributes);
 115:Core/Src/app_freertos.c **** 
 116:Core/Src/app_freertos.c ****   /* creation of checkADC */
 117:Core/Src/app_freertos.c ****   checkADCHandle = osTimerNew(checkADCCallBack, osTimerPeriodic, NULL, &checkADC_attributes);
 118:Core/Src/app_freertos.c **** 
 119:Core/Src/app_freertos.c ****   /* USER CODE BEGIN RTOS_TIMERS */
 120:Core/Src/app_freertos.c ****   /* start timers, add new ones, ... */
 121:Core/Src/app_freertos.c ****   /* USER CODE END RTOS_TIMERS */
 122:Core/Src/app_freertos.c **** 
 123:Core/Src/app_freertos.c ****   /* USER CODE BEGIN RTOS_QUEUES */
 124:Core/Src/app_freertos.c ****   /* add queues, ... */
 125:Core/Src/app_freertos.c ****   /* USER CODE END RTOS_QUEUES */
 126:Core/Src/app_freertos.c **** 
 127:Core/Src/app_freertos.c ****   /* Create the thread(s) */
 128:Core/Src/app_freertos.c ****   /* creation of defaultTask */
 129:Core/Src/app_freertos.c ****   defaultTaskHandle = osThreadNew(StartDefaultTask, NULL, &defaultTask_attributes);
 130:Core/Src/app_freertos.c **** 
 131:Core/Src/app_freertos.c ****   /* USER CODE BEGIN RTOS_THREADS */
 132:Core/Src/app_freertos.c ****   /* add threads, ... */
 133:Core/Src/app_freertos.c ****   /* USER CODE END RTOS_THREADS */
 134:Core/Src/app_freertos.c **** 
 135:Core/Src/app_freertos.c ****   /* USER CODE BEGIN RTOS_EVENTS */
ARM GAS  /var/folders/r0/ydptfcq11zg26w5yg1gx1gdc0000gn/T//ccXIJJG4.s 			page 4


 136:Core/Src/app_freertos.c ****   /* add events, ... */
 137:Core/Src/app_freertos.c ****   /* USER CODE END RTOS_EVENTS */
 138:Core/Src/app_freertos.c **** 
 139:Core/Src/app_freertos.c **** }
 140:Core/Src/app_freertos.c **** 
 141:Core/Src/app_freertos.c **** /* USER CODE BEGIN Header_StartDefaultTask */
 142:Core/Src/app_freertos.c **** /**
 143:Core/Src/app_freertos.c ****   * @brief  Function implementing the defaultTask thread.
 144:Core/Src/app_freertos.c ****   * @param  argument: Not used
 145:Core/Src/app_freertos.c ****   * @retval None
 146:Core/Src/app_freertos.c ****   */
 147:Core/Src/app_freertos.c **** /* USER CODE END Header_StartDefaultTask */
 148:Core/Src/app_freertos.c **** void StartDefaultTask(void *argument)
 149:Core/Src/app_freertos.c **** {
  34              		.loc 1 149 1 view -0
  35              		.cfi_startproc
  36              		@ Volatile: function does not return.
  37              		@ args = 0, pretend = 0, frame = 0
  38              		@ frame_needed = 0, uses_anonymous_args = 0
  39              		.loc 1 149 1 is_stmt 0 view .LVU1
  40 0000 00B5     		push	{lr}
  41              		.cfi_def_cfa_offset 4
  42              		.cfi_offset 14, -4
  43 0002 85B0     		sub	sp, sp, #20
  44              		.cfi_def_cfa_offset 24
 150:Core/Src/app_freertos.c ****   /* USER CODE BEGIN StartDefaultTask */
 151:Core/Src/app_freertos.c ****   MX_TIM2_Init();
  45              		.loc 1 151 3 is_stmt 1 view .LVU2
  46 0004 FFF7FEFF 		bl	MX_TIM2_Init
  47              	.LVL1:
 152:Core/Src/app_freertos.c ****   HAL_TIM_Base_Start(&htim2);
  48              		.loc 1 152 3 view .LVU3
  49 0008 1848     		ldr	r0, .L4
  50 000a FFF7FEFF 		bl	HAL_TIM_Base_Start
  51              	.LVL2:
 153:Core/Src/app_freertos.c **** 
 154:Core/Src/app_freertos.c ****   MX_ADC1_Init();
  52              		.loc 1 154 3 view .LVU4
  53 000e FFF7FEFF 		bl	MX_ADC1_Init
  54              	.LVL3:
 155:Core/Src/app_freertos.c **** 
 156:Core/Src/app_freertos.c **** 
 157:Core/Src/app_freertos.c ****   lcd16x2_init_4bits(GPIOA, RS_Pin, E_Pin, GPIOA, D4_Pin, D5_Pin, D6_Pin, D7_Pin);
  55              		.loc 1 157 3 view .LVU5
  56 0012 4FF40073 		mov	r3, #512
  57 0016 0393     		str	r3, [sp, #12]
  58 0018 4FF48073 		mov	r3, #256
  59 001c 0293     		str	r3, [sp, #8]
  60 001e 4FF40043 		mov	r3, #32768
  61 0022 0193     		str	r3, [sp, #4]
  62 0024 4FF48063 		mov	r3, #1024
  63 0028 0093     		str	r3, [sp]
  64 002a 4FF09043 		mov	r3, #1207959552
  65 002e 0422     		movs	r2, #4
  66 0030 0821     		movs	r1, #8
  67 0032 1846     		mov	r0, r3
  68 0034 FFF7FEFF 		bl	lcd16x2_init_4bits
ARM GAS  /var/folders/r0/ydptfcq11zg26w5yg1gx1gdc0000gn/T//ccXIJJG4.s 			page 5


  69              	.LVL4:
 158:Core/Src/app_freertos.c ****   lcd16x2_printf("Starting Program!");
  70              		.loc 1 158 3 view .LVU6
  71 0038 0D48     		ldr	r0, .L4+4
  72 003a FFF7FEFF 		bl	lcd16x2_printf
  73              	.LVL5:
 159:Core/Src/app_freertos.c **** 
 160:Core/Src/app_freertos.c ****   osTimerStart(tempCheckHandle, 3000);
  74              		.loc 1 160 3 view .LVU7
  75 003e 40F6B831 		movw	r1, #3000
  76 0042 0C4B     		ldr	r3, .L4+8
  77 0044 1868     		ldr	r0, [r3]
  78 0046 FFF7FEFF 		bl	osTimerStart
  79              	.LVL6:
 161:Core/Src/app_freertos.c ****   osTimerStart(checkADCHandle, 200);
  80              		.loc 1 161 3 view .LVU8
  81 004a C821     		movs	r1, #200
  82 004c 0A4B     		ldr	r3, .L4+12
  83 004e 1868     		ldr	r0, [r3]
  84 0050 FFF7FEFF 		bl	osTimerStart
  85              	.LVL7:
 162:Core/Src/app_freertos.c **** 
 163:Core/Src/app_freertos.c ****   DC_MOTOR_Init(DC_MOTOR1);
  86              		.loc 1 163 3 view .LVU9
  87 0054 0020     		movs	r0, #0
  88 0056 FFF7FEFF 		bl	DC_MOTOR_Init
  89              	.LVL8:
 164:Core/Src/app_freertos.c ****   DC_MOTOR_Start(DC_MOTOR1, DIR_CW, 0);
  90              		.loc 1 164 3 view .LVU10
  91 005a 0022     		movs	r2, #0
  92 005c 1146     		mov	r1, r2
  93 005e 1046     		mov	r0, r2
  94 0060 FFF7FEFF 		bl	DC_MOTOR_Start
  95              	.LVL9:
  96              	.L2:
 165:Core/Src/app_freertos.c ****   /* Infinite loop */
 166:Core/Src/app_freertos.c ****   for (;;){
  97              		.loc 1 166 3 discriminator 1 view .LVU11
 167:Core/Src/app_freertos.c ****     osDelay(1);
  98              		.loc 1 167 5 discriminator 1 view .LVU12
  99 0064 0120     		movs	r0, #1
 100 0066 FFF7FEFF 		bl	osDelay
 101              	.LVL10:
 166:Core/Src/app_freertos.c ****     osDelay(1);
 102              		.loc 1 166 3 discriminator 1 view .LVU13
 103 006a FBE7     		b	.L2
 104              	.L5:
 105              		.align	2
 106              	.L4:
 107 006c 00000000 		.word	htim2
 108 0070 00000000 		.word	.LC0
 109 0074 00000000 		.word	.LANCHOR0
 110 0078 00000000 		.word	.LANCHOR1
 111              		.cfi_endproc
 112              	.LFE1110:
 114              		.section	.rodata.checkADCCallBack.str1.4,"aMS",%progbits,1
 115              		.align	2
ARM GAS  /var/folders/r0/ydptfcq11zg26w5yg1gx1gdc0000gn/T//ccXIJJG4.s 			page 6


 116              	.LC1:
 117 0000 44657369 		.ascii	"Desired Temp:%dC\000"
 117      72656420 
 117      54656D70 
 117      3A256443 
 117      00
 118              		.section	.text.checkADCCallBack,"ax",%progbits
 119              		.align	1
 120              		.global	checkADCCallBack
 121              		.syntax unified
 122              		.thumb
 123              		.thumb_func
 125              	checkADCCallBack:
 126              	.LVL11:
 127              	.LFB1112:
 168:Core/Src/app_freertos.c ****   }
 169:Core/Src/app_freertos.c ****   /* USER CODE END StartDefaultTask */
 170:Core/Src/app_freertos.c **** }
 171:Core/Src/app_freertos.c **** 
 172:Core/Src/app_freertos.c **** /* tempCheckCallBack function */
 173:Core/Src/app_freertos.c **** void tempCheckCallBack(void *argument)
 174:Core/Src/app_freertos.c **** {
 175:Core/Src/app_freertos.c ****   /* USER CODE BEGIN tempCheckCallBack */
 176:Core/Src/app_freertos.c ****   DHT_GetData(&DHT11_Data);
 177:Core/Src/app_freertos.c ****   Temperature = DHT11_Data.Temperature;
 178:Core/Src/app_freertos.c ****   Humidity = DHT11_Data.Humidity;
 179:Core/Src/app_freertos.c ****   Display_Temp(Temperature, Humidity);
 180:Core/Src/app_freertos.c ****   /* USER CODE END tempCheckCallBack */
 181:Core/Src/app_freertos.c **** }
 182:Core/Src/app_freertos.c **** 
 183:Core/Src/app_freertos.c **** /* checkADCCallBack function */
 184:Core/Src/app_freertos.c **** void checkADCCallBack(void *argument)
 185:Core/Src/app_freertos.c **** {
 128              		.loc 1 185 1 view -0
 129              		.cfi_startproc
 130              		@ args = 0, pretend = 0, frame = 0
 131              		@ frame_needed = 0, uses_anonymous_args = 0
 132              		.loc 1 185 1 is_stmt 0 view .LVU15
 133 0000 38B5     		push	{r3, r4, r5, lr}
 134              		.cfi_def_cfa_offset 16
 135              		.cfi_offset 3, -16
 136              		.cfi_offset 4, -12
 137              		.cfi_offset 5, -8
 138              		.cfi_offset 14, -4
 186:Core/Src/app_freertos.c ****   /* USER CODE BEGIN checkADCCallBack */
 187:Core/Src/app_freertos.c ****   // Get ADC value
 188:Core/Src/app_freertos.c ****   uint16_t raw;
 139              		.loc 1 188 3 is_stmt 1 view .LVU16
 189:Core/Src/app_freertos.c ****   uint16_t cThreshold;
 140              		.loc 1 189 3 view .LVU17
 190:Core/Src/app_freertos.c ****   int convertedC;
 141              		.loc 1 190 3 view .LVU18
 191:Core/Src/app_freertos.c ****   
 192:Core/Src/app_freertos.c ****   HAL_ADC_Start(&hadc1);
 142              		.loc 1 192 3 view .LVU19
 143 0002 1A4C     		ldr	r4, .L13
 144 0004 2046     		mov	r0, r4
ARM GAS  /var/folders/r0/ydptfcq11zg26w5yg1gx1gdc0000gn/T//ccXIJJG4.s 			page 7


 145              	.LVL12:
 146              		.loc 1 192 3 is_stmt 0 view .LVU20
 147 0006 FFF7FEFF 		bl	HAL_ADC_Start
 148              	.LVL13:
 193:Core/Src/app_freertos.c ****   HAL_ADC_PollForConversion(&hadc1, HAL_MAX_DELAY);
 149              		.loc 1 193 3 is_stmt 1 view .LVU21
 150 000a 4FF0FF31 		mov	r1, #-1
 151 000e 2046     		mov	r0, r4
 152 0010 FFF7FEFF 		bl	HAL_ADC_PollForConversion
 153              	.LVL14:
 194:Core/Src/app_freertos.c ****   raw = HAL_ADC_GetValue(&hadc1);
 154              		.loc 1 194 3 view .LVU22
 155              		.loc 1 194 9 is_stmt 0 view .LVU23
 156 0014 2046     		mov	r0, r4
 157 0016 FFF7FEFF 		bl	HAL_ADC_GetValue
 158              	.LVL15:
 195:Core/Src/app_freertos.c ****   convertedC = (raw * 40) / 4095; // User can set the desired temp from 0-40 celcius
 159              		.loc 1 195 3 is_stmt 1 view .LVU24
 160              		.loc 1 195 21 is_stmt 0 view .LVU25
 161 001a 85B2     		uxth	r5, r0
 162 001c 05EB8503 		add	r3, r5, r5, lsl #2
 163 0020 DB00     		lsls	r3, r3, #3
 164              		.loc 1 195 14 view .LVU26
 165 0022 134C     		ldr	r4, .L13+4
 166 0024 84FB0324 		smull	r2, r4, r4, r3
 167 0028 1C44     		add	r4, r4, r3
 168 002a E412     		asrs	r4, r4, #11
 169              	.LVL16:
 196:Core/Src/app_freertos.c ****   lcd16x2_2ndLine();
 170              		.loc 1 196 3 is_stmt 1 view .LVU27
 171 002c FFF7FEFF 		bl	lcd16x2_2ndLine
 172              	.LVL17:
 197:Core/Src/app_freertos.c ****   lcd16x2_printf("Desired Temp:%dC", convertedC);
 173              		.loc 1 197 3 view .LVU28
 174 0030 2146     		mov	r1, r4
 175 0032 1048     		ldr	r0, .L13+8
 176 0034 FFF7FEFF 		bl	lcd16x2_printf
 177              	.LVL18:
 198:Core/Src/app_freertos.c ****   if (convertedC > Temperature){
 178              		.loc 1 198 3 view .LVU29
 179              		.loc 1 198 18 is_stmt 0 view .LVU30
 180 0038 07EE904A 		vmov	s15, r4	@ int
 181 003c F8EEE77A 		vcvt.f32.s32	s15, s15
 182 0040 0D4B     		ldr	r3, .L13+12
 183 0042 93ED007A 		vldr.32	s14, [r3]
 184              		.loc 1 198 6 view .LVU31
 185 0046 F4EEC77A 		vcmpe.f32	s15, s14
 186 004a F1EE10FA 		vmrs	APSR_nzcv, FPSCR
 187 004e 04DD     		ble	.L11
 199:Core/Src/app_freertos.c ****     cThreshold = 0;
 188              		.loc 1 199 5 is_stmt 1 view .LVU32
 189              	.LVL19:
 200:Core/Src/app_freertos.c ****     DC_MOTOR_Set_Speed(DC_MOTOR1, cThreshold);
 190              		.loc 1 200 5 view .LVU33
 191 0050 0021     		movs	r1, #0
 192 0052 0846     		mov	r0, r1
 193 0054 FFF7FEFF 		bl	DC_MOTOR_Set_Speed
ARM GAS  /var/folders/r0/ydptfcq11zg26w5yg1gx1gdc0000gn/T//ccXIJJG4.s 			page 8


 194              	.LVL20:
 195              	.L6:
 201:Core/Src/app_freertos.c ****   }
 202:Core/Src/app_freertos.c ****   else{
 203:Core/Src/app_freertos.c ****     cThreshold = raw;
 204:Core/Src/app_freertos.c ****     DC_MOTOR_Set_Speed(DC_MOTOR1, (4095 - cThreshold) >> 2);
 205:Core/Src/app_freertos.c ****   }
 206:Core/Src/app_freertos.c ****   /* USER CODE END checkADCCallBack */
 207:Core/Src/app_freertos.c **** }
 196              		.loc 1 207 1 is_stmt 0 view .LVU34
 197 0058 38BD     		pop	{r3, r4, r5, pc}
 198              	.LVL21:
 199              	.L11:
 203:Core/Src/app_freertos.c ****     DC_MOTOR_Set_Speed(DC_MOTOR1, (4095 - cThreshold) >> 2);
 200              		.loc 1 203 5 is_stmt 1 view .LVU35
 204:Core/Src/app_freertos.c ****   }
 201              		.loc 1 204 5 view .LVU36
 204:Core/Src/app_freertos.c ****   }
 202              		.loc 1 204 41 is_stmt 0 view .LVU37
 203 005a C5F57F61 		rsb	r1, r5, #4080
 204 005e 0F31     		adds	r1, r1, #15
 204:Core/Src/app_freertos.c ****   }
 205              		.loc 1 204 5 view .LVU38
 206 0060 C1F38F01 		ubfx	r1, r1, #2, #16
 207 0064 0020     		movs	r0, #0
 208 0066 FFF7FEFF 		bl	DC_MOTOR_Set_Speed
 209              	.LVL22:
 210              		.loc 1 207 1 view .LVU39
 211 006a F5E7     		b	.L6
 212              	.L14:
 213              		.align	2
 214              	.L13:
 215 006c 00000000 		.word	hadc1
 216 0070 81000880 		.word	-2146959231
 217 0074 00000000 		.word	.LC1
 218 0078 00000000 		.word	.LANCHOR2
 219              		.cfi_endproc
 220              	.LFE1112:
 222              		.section	.rodata.Display_Temp.str1.4,"aMS",%progbits,1
 223              		.align	2
 224              	.LC2:
 225 0000 54656D70 		.ascii	"Temp: %dC RH: %d\000"
 225      3A202564 
 225      43205248 
 225      3A202564 
 225      00
 226              		.section	.text.Display_Temp,"ax",%progbits
 227              		.align	1
 228              		.global	Display_Temp
 229              		.syntax unified
 230              		.thumb
 231              		.thumb_func
 233              	Display_Temp:
 234              	.LVL23:
 235              	.LFB1108:
  76:Core/Src/app_freertos.c ****   lcd16x2_clear();
 236              		.loc 1 76 40 is_stmt 1 view -0
ARM GAS  /var/folders/r0/ydptfcq11zg26w5yg1gx1gdc0000gn/T//ccXIJJG4.s 			page 9


 237              		.cfi_startproc
 238              		@ args = 0, pretend = 0, frame = 0
 239              		@ frame_needed = 0, uses_anonymous_args = 0
  76:Core/Src/app_freertos.c ****   lcd16x2_clear();
 240              		.loc 1 76 40 is_stmt 0 view .LVU41
 241 0000 08B5     		push	{r3, lr}
 242              		.cfi_def_cfa_offset 8
 243              		.cfi_offset 3, -8
 244              		.cfi_offset 14, -4
 245 0002 2DED028B 		vpush.64	{d8}
 246              		.cfi_def_cfa_offset 16
 247              		.cfi_offset 80, -16
 248              		.cfi_offset 81, -12
 249 0006 B0EE408A 		vmov.f32	s16, s0
 250 000a F0EE608A 		vmov.f32	s17, s1
  77:Core/Src/app_freertos.c ****   lcd16x2_1stLine();
 251              		.loc 1 77 3 is_stmt 1 view .LVU42
 252 000e FFF7FEFF 		bl	lcd16x2_clear
 253              	.LVL24:
  78:Core/Src/app_freertos.c ****   lcd16x2_printf("Temp: %dC RH: %d", (int)Temp, (int)Rh);
 254              		.loc 1 78 3 view .LVU43
 255 0012 FFF7FEFF 		bl	lcd16x2_1stLine
 256              	.LVL25:
  79:Core/Src/app_freertos.c **** }
 257              		.loc 1 79 3 view .LVU44
 258 0016 FDEEE87A 		vcvt.s32.f32	s15, s17
 259 001a 17EE902A 		vmov	r2, s15	@ int
 260 001e FDEEC87A 		vcvt.s32.f32	s15, s16
 261 0022 17EE901A 		vmov	r1, s15	@ int
 262 0026 0348     		ldr	r0, .L17
 263 0028 FFF7FEFF 		bl	lcd16x2_printf
 264              	.LVL26:
  80:Core/Src/app_freertos.c **** 
 265              		.loc 1 80 1 is_stmt 0 view .LVU45
 266 002c BDEC028B 		vldm	sp!, {d8}
 267              		.cfi_restore 80
 268              		.cfi_restore 81
 269              		.cfi_def_cfa_offset 8
 270              	.LVL27:
  80:Core/Src/app_freertos.c **** 
 271              		.loc 1 80 1 view .LVU46
 272 0030 08BD     		pop	{r3, pc}
 273              	.L18:
 274 0032 00BF     		.align	2
 275              	.L17:
 276 0034 00000000 		.word	.LC2
 277              		.cfi_endproc
 278              	.LFE1108:
 280              		.section	.text.tempCheckCallBack,"ax",%progbits
 281              		.align	1
 282              		.global	tempCheckCallBack
 283              		.syntax unified
 284              		.thumb
 285              		.thumb_func
 287              	tempCheckCallBack:
 288              	.LVL28:
 289              	.LFB1111:
ARM GAS  /var/folders/r0/ydptfcq11zg26w5yg1gx1gdc0000gn/T//ccXIJJG4.s 			page 10


 174:Core/Src/app_freertos.c ****   /* USER CODE BEGIN tempCheckCallBack */
 290              		.loc 1 174 1 is_stmt 1 view -0
 291              		.cfi_startproc
 292              		@ args = 0, pretend = 0, frame = 0
 293              		@ frame_needed = 0, uses_anonymous_args = 0
 174:Core/Src/app_freertos.c ****   /* USER CODE BEGIN tempCheckCallBack */
 294              		.loc 1 174 1 is_stmt 0 view .LVU48
 295 0000 10B5     		push	{r4, lr}
 296              		.cfi_def_cfa_offset 8
 297              		.cfi_offset 4, -8
 298              		.cfi_offset 14, -4
 176:Core/Src/app_freertos.c ****   Temperature = DHT11_Data.Temperature;
 299              		.loc 1 176 3 is_stmt 1 view .LVU49
 300 0002 084C     		ldr	r4, .L21
 301 0004 2046     		mov	r0, r4
 302              	.LVL29:
 176:Core/Src/app_freertos.c ****   Temperature = DHT11_Data.Temperature;
 303              		.loc 1 176 3 is_stmt 0 view .LVU50
 304 0006 FFF7FEFF 		bl	DHT_GetData
 305              	.LVL30:
 177:Core/Src/app_freertos.c ****   Humidity = DHT11_Data.Humidity;
 306              		.loc 1 177 3 is_stmt 1 view .LVU51
 177:Core/Src/app_freertos.c ****   Humidity = DHT11_Data.Humidity;
 307              		.loc 1 177 27 is_stmt 0 view .LVU52
 308 000a 94ED000A 		vldr.32	s0, [r4]
 177:Core/Src/app_freertos.c ****   Humidity = DHT11_Data.Humidity;
 309              		.loc 1 177 15 view .LVU53
 310 000e 064B     		ldr	r3, .L21+4
 311 0010 83ED000A 		vstr.32	s0, [r3]
 178:Core/Src/app_freertos.c ****   Display_Temp(Temperature, Humidity);
 312              		.loc 1 178 3 is_stmt 1 view .LVU54
 178:Core/Src/app_freertos.c ****   Display_Temp(Temperature, Humidity);
 313              		.loc 1 178 24 is_stmt 0 view .LVU55
 314 0014 D4ED010A 		vldr.32	s1, [r4, #4]
 178:Core/Src/app_freertos.c ****   Display_Temp(Temperature, Humidity);
 315              		.loc 1 178 12 view .LVU56
 316 0018 044B     		ldr	r3, .L21+8
 317 001a C3ED000A 		vstr.32	s1, [r3]
 179:Core/Src/app_freertos.c ****   /* USER CODE END tempCheckCallBack */
 318              		.loc 1 179 3 is_stmt 1 view .LVU57
 319 001e FFF7FEFF 		bl	Display_Temp
 320              	.LVL31:
 181:Core/Src/app_freertos.c **** 
 321              		.loc 1 181 1 is_stmt 0 view .LVU58
 322 0022 10BD     		pop	{r4, pc}
 323              	.L22:
 324              		.align	2
 325              	.L21:
 326 0024 00000000 		.word	.LANCHOR3
 327 0028 00000000 		.word	.LANCHOR2
 328 002c 00000000 		.word	.LANCHOR4
 329              		.cfi_endproc
 330              	.LFE1111:
 332              		.section	.text.MX_FREERTOS_Init,"ax",%progbits
 333              		.align	1
 334              		.global	MX_FREERTOS_Init
 335              		.syntax unified
ARM GAS  /var/folders/r0/ydptfcq11zg26w5yg1gx1gdc0000gn/T//ccXIJJG4.s 			page 11


 336              		.thumb
 337              		.thumb_func
 339              	MX_FREERTOS_Init:
 340              	.LFB1109:
  99:Core/Src/app_freertos.c ****   /* USER CODE BEGIN Init */
 341              		.loc 1 99 29 is_stmt 1 view -0
 342              		.cfi_startproc
 343              		@ args = 0, pretend = 0, frame = 0
 344              		@ frame_needed = 0, uses_anonymous_args = 0
 345 0000 08B5     		push	{r3, lr}
 346              		.cfi_def_cfa_offset 8
 347              		.cfi_offset 3, -8
 348              		.cfi_offset 14, -4
 114:Core/Src/app_freertos.c **** 
 349              		.loc 1 114 3 view .LVU60
 114:Core/Src/app_freertos.c **** 
 350              		.loc 1 114 21 is_stmt 0 view .LVU61
 351 0002 0C4B     		ldr	r3, .L25
 352 0004 0022     		movs	r2, #0
 353 0006 0121     		movs	r1, #1
 354 0008 0B48     		ldr	r0, .L25+4
 355 000a FFF7FEFF 		bl	osTimerNew
 356              	.LVL32:
 114:Core/Src/app_freertos.c **** 
 357              		.loc 1 114 19 view .LVU62
 358 000e 0B4B     		ldr	r3, .L25+8
 359 0010 1860     		str	r0, [r3]
 117:Core/Src/app_freertos.c **** 
 360              		.loc 1 117 3 is_stmt 1 view .LVU63
 117:Core/Src/app_freertos.c **** 
 361              		.loc 1 117 20 is_stmt 0 view .LVU64
 362 0012 0B4B     		ldr	r3, .L25+12
 363 0014 0022     		movs	r2, #0
 364 0016 0121     		movs	r1, #1
 365 0018 0A48     		ldr	r0, .L25+16
 366 001a FFF7FEFF 		bl	osTimerNew
 367              	.LVL33:
 117:Core/Src/app_freertos.c **** 
 368              		.loc 1 117 18 view .LVU65
 369 001e 0A4B     		ldr	r3, .L25+20
 370 0020 1860     		str	r0, [r3]
 129:Core/Src/app_freertos.c **** 
 371              		.loc 1 129 3 is_stmt 1 view .LVU66
 129:Core/Src/app_freertos.c **** 
 372              		.loc 1 129 23 is_stmt 0 view .LVU67
 373 0022 0A4A     		ldr	r2, .L25+24
 374 0024 0021     		movs	r1, #0
 375 0026 0A48     		ldr	r0, .L25+28
 376 0028 FFF7FEFF 		bl	osThreadNew
 377              	.LVL34:
 129:Core/Src/app_freertos.c **** 
 378              		.loc 1 129 21 view .LVU68
 379 002c 094B     		ldr	r3, .L25+32
 380 002e 1860     		str	r0, [r3]
 139:Core/Src/app_freertos.c **** 
 381              		.loc 1 139 1 view .LVU69
 382 0030 08BD     		pop	{r3, pc}
ARM GAS  /var/folders/r0/ydptfcq11zg26w5yg1gx1gdc0000gn/T//ccXIJJG4.s 			page 12


 383              	.L26:
 384 0032 00BF     		.align	2
 385              	.L25:
 386 0034 00000000 		.word	.LANCHOR5
 387 0038 00000000 		.word	tempCheckCallBack
 388 003c 00000000 		.word	.LANCHOR0
 389 0040 00000000 		.word	.LANCHOR6
 390 0044 00000000 		.word	checkADCCallBack
 391 0048 00000000 		.word	.LANCHOR1
 392 004c 00000000 		.word	.LANCHOR7
 393 0050 00000000 		.word	StartDefaultTask
 394 0054 00000000 		.word	.LANCHOR8
 395              		.cfi_endproc
 396              	.LFE1109:
 398              		.global	Humidity
 399              		.global	Temperature
 400              		.global	DHT11_Data
 401              		.global	checkADC_attributes
 402              		.section	.rodata.str1.4,"aMS",%progbits,1
 403              		.align	2
 404              	.LC3:
 405 0000 63686563 		.ascii	"checkADC\000"
 405      6B414443 
 405      00
 406              		.global	checkADCHandle
 407              		.global	tempCheck_attributes
 408 0009 000000   		.align	2
 409              	.LC4:
 410 000c 74656D70 		.ascii	"tempCheck\000"
 410      43686563 
 410      6B00
 411              		.global	tempCheckHandle
 412              		.global	defaultTask_attributes
 413 0016 0000     		.align	2
 414              	.LC5:
 415 0018 64656661 		.ascii	"defaultTask\000"
 415      756C7454 
 415      61736B00 
 416              		.global	defaultTaskHandle
 417              		.section	.bss.DHT11_Data,"aw",%nobits
 418              		.align	2
 419              		.set	.LANCHOR3,. + 0
 422              	DHT11_Data:
 423 0000 00000000 		.space	8
 423      00000000 
 424              		.section	.bss.Humidity,"aw",%nobits
 425              		.align	2
 426              		.set	.LANCHOR4,. + 0
 429              	Humidity:
 430 0000 00000000 		.space	4
 431              		.section	.bss.Temperature,"aw",%nobits
 432              		.align	2
 433              		.set	.LANCHOR2,. + 0
 436              	Temperature:
 437 0000 00000000 		.space	4
 438              		.section	.bss.checkADCHandle,"aw",%nobits
 439              		.align	2
ARM GAS  /var/folders/r0/ydptfcq11zg26w5yg1gx1gdc0000gn/T//ccXIJJG4.s 			page 13


 440              		.set	.LANCHOR1,. + 0
 443              	checkADCHandle:
 444 0000 00000000 		.space	4
 445              		.section	.bss.defaultTaskHandle,"aw",%nobits
 446              		.align	2
 447              		.set	.LANCHOR8,. + 0
 450              	defaultTaskHandle:
 451 0000 00000000 		.space	4
 452              		.section	.bss.tempCheckHandle,"aw",%nobits
 453              		.align	2
 454              		.set	.LANCHOR0,. + 0
 457              	tempCheckHandle:
 458 0000 00000000 		.space	4
 459              		.section	.rodata.checkADC_attributes,"a"
 460              		.align	2
 461              		.set	.LANCHOR6,. + 0
 464              	checkADC_attributes:
 465 0000 00000000 		.word	.LC3
 466 0004 00000000 		.space	12
 466      00000000 
 466      00000000 
 467              		.section	.rodata.defaultTask_attributes,"a"
 468              		.align	2
 469              		.set	.LANCHOR7,. + 0
 472              	defaultTask_attributes:
 473 0000 18000000 		.word	.LC5
 474 0004 00000000 		.space	16
 474      00000000 
 474      00000000 
 474      00000000 
 475 0014 00020000 		.word	512
 476 0018 18000000 		.word	24
 477 001c 00000000 		.space	8
 477      00000000 
 478              		.section	.rodata.tempCheck_attributes,"a"
 479              		.align	2
 480              		.set	.LANCHOR5,. + 0
 483              	tempCheck_attributes:
 484 0000 0C000000 		.word	.LC4
 485 0004 00000000 		.space	12
 485      00000000 
 485      00000000 
 486              		.text
 487              	.Letext0:
 488              		.file 2 "/Users/aeheigl/Library/Application Support/Code/User/globalStorage/bmd.stm32-for-vscode/@
 489              		.file 3 "/Users/aeheigl/Library/Application Support/Code/User/globalStorage/bmd.stm32-for-vscode/@
 490              		.file 4 "Drivers/CMSIS/Device/ST/STM32WBxx/Include/stm32wb55xx.h"
 491              		.file 5 "Drivers/CMSIS/Device/ST/STM32WBxx/Include/stm32wbxx.h"
 492              		.file 6 "Drivers/STM32WBxx_HAL_Driver/Inc/stm32wbxx_hal_def.h"
 493              		.file 7 "Drivers/STM32WBxx_HAL_Driver/Inc/stm32wbxx_hal_dma.h"
 494              		.file 8 "Drivers/STM32WBxx_HAL_Driver/Inc/stm32wbxx_hal_adc.h"
 495              		.file 9 "Drivers/STM32WBxx_HAL_Driver/Inc/stm32wbxx_hal_tim.h"
 496              		.file 10 "Middlewares/Third_Party/FreeRTOS/Source/CMSIS_RTOS_V2/cmsis_os2.h"
 497              		.file 11 "Core/Inc/tim.h"
 498              		.file 12 "Core/Inc/adc.h"
 499              		.file 13 "Core/Inc/DHT.h"
 500              		.file 14 "Core/Inc/DC_MOTOR.h"
ARM GAS  /var/folders/r0/ydptfcq11zg26w5yg1gx1gdc0000gn/T//ccXIJJG4.s 			page 14


 501              		.file 15 "Core/Inc/lcd16x2.h"
ARM GAS  /var/folders/r0/ydptfcq11zg26w5yg1gx1gdc0000gn/T//ccXIJJG4.s 			page 15

